; Function Attrs: mustprogress nounwind uwtable
define dso_local void @_ZN21cmGeneratedFileStreamD2Ev(ptr noundef nonnull align 8 dereferenceable(348) %0, ptr noundef %1) unnamed_addr #4 align 2 personality ptr @__gxx_personality_v0 {
  %3 = load ptr, ptr %1, align 8
  store ptr %3, ptr %0, align 8
  %4 = getelementptr inbounds i8, ptr %1, i64 40
  %5 = load ptr, ptr %4, align 8
  %6 = getelementptr i8, ptr %3, i64 -24
  %7 = load i64, ptr %6, align 8
  %8 = getelementptr inbounds i8, ptr %0, i64 %7
  store ptr %5, ptr %8, align 8
  %9 = load ptr, ptr %0, align 8
  %10 = getelementptr i8, ptr %9, i64 -24
  %11 = load i64, ptr %10, align 8
  %12 = getelementptr inbounds i8, ptr %0, i64 %11
  %13 = invoke noundef zeroext i1 @_ZNKSt9basic_iosIcSt11char_traitsIcEE4failEv(ptr noundef nonnull align 8 dereferenceable(264) %12)
          to label %14 unwind label %26

14:                                               ; preds = %2
  %15 = xor i1 %13, true
  %16 = getelementptr inbounds i8, ptr %0, i64 248
  %17 = getelementptr inbounds i8, ptr %0, i64 345
  %18 = zext i1 %15 to i8
  store i8 %18, ptr %17, align 1
  %19 = getelementptr inbounds i8, ptr %1, i64 8
  tail call void @_ZNSt14basic_ofstreamIcSt11char_traitsIcEED2Ev(ptr noundef nonnull align 8 dereferenceable(248) %0, ptr noundef nonnull %19) #15
  %20 = invoke noundef zeroext i1 @_ZN25cmGeneratedFileStreamBase5CloseEv(ptr noundef nonnull align 8 dereferenceable(100) %16)
          to label %_ZN25cmGeneratedFileStreamBaseD2Ev.exit unwind label %21

21:                                               ; preds = %14
  %22 = landingpad { ptr, i32 }
          catch ptr null
  %23 = extractvalue { ptr, i32 } %22, 0
  tail call void @__clang_call_terminate(ptr %23) #19
  unreachable

_ZN25cmGeneratedFileStreamBaseD2Ev.exit:          ; preds = %14
  %24 = getelementptr inbounds i8, ptr %0, i64 312
  tail call void @_ZNSt7__cxx1112basic_stringIcSt11char_traitsIcESaIcEED1Ev(ptr noundef nonnull align 8 dereferenceable(32) %24) #15
  %25 = getelementptr inbounds i8, ptr %0, i64 280
  tail call void @_ZNSt7__cxx1112basic_stringIcSt11char_traitsIcESaIcEED1Ev(ptr noundef nonnull align 8 dereferenceable(32) %25) #15
  tail call void @_ZNSt7__cxx1112basic_stringIcSt11char_traitsIcESaIcEED1Ev(ptr noundef nonnull align 8 dereferenceable(32) %16) #15
  ret void

26:                                               ; preds = %2
  %27 = landingpad { ptr, i32 }
          catch ptr null
  %28 = extractvalue { ptr, i32 } %27, 0
  tail call void @__clang_call_terminate(ptr %28) #19
  unreachable
}